; Function Attrs: nounwind uwtable
define internal ptr @ml_dsa_87_new_key(ptr noundef %0) #0 {
  %2 = tail call i32 @ossl_prov_is_running() #6
  %.not.i = icmp eq i32 %2, 0
  br i1 %.not.i, label %ml_dsa_new_key.exit, label %3

3:                                                ; preds = %1
  %4 = tail call ptr @ossl_prov_ctx_get0_libctx(ptr noundef %0) #6
  %5 = tail call ptr @ossl_ml_dsa_key_new(ptr noundef %4, ptr noundef null, i32 noundef 1459) #6
  %.not11.i = icmp eq ptr %5, null
  br i1 %.not11.i, label %ml_dsa_new_key.exit, label %6

6:                                                ; preds = %3
  %7 = tail call i32 @ossl_prov_ctx_get_bool_param(ptr noundef %0, ptr noundef nonnull @.str, i32 noundef 1) #6
  %8 = tail call i32 @ossl_prov_ctx_get_bool_param(ptr noundef %0, ptr noundef nonnull @.str.1, i32 noundef 1) #6
  %9 = tail call i32 @ossl_ml_dsa_set_prekey(ptr noundef nonnull %5, i32 noundef %7, i32 noundef %8, ptr noundef null, i64 noundef 0, ptr noundef null, i64 noundef 0) #6
  br label %ml_dsa_new_key.exit

ml_dsa_new_key.exit:                              ; preds = %1, %3, %6
  %.0.i = phi ptr [ null, %1 ], [ %5, %6 ], [ null, %3 ]
  ret ptr %.0.i
}